; Function Attrs: mustprogress uwtable
define void @_ZN6google8protobuf2io16GzipOutputStreamC2EPNS1_20ZeroCopyOutputStreamERKNS2_7OptionsE(ptr noundef nonnull align 8 dereferenceable(168) %this, ptr noundef %sub_stream, ptr nocapture noundef nonnull readonly align 4 dereferenceable(16) %options) unnamed_addr #3 align 2 personality ptr @__gxx_personality_v0 {
entry:
  store ptr getelementptr inbounds ({ [10 x ptr] }, ptr @_ZTVN6google8protobuf2io16GzipOutputStreamE, i64 0, i32 0, i64 2), ptr %this, align 8
  %sub_stream_.i = getelementptr inbounds i8, ptr %this, i64 8
  store ptr %sub_stream, ptr %sub_stream_.i, align 8
  %sub_data_.i = getelementptr inbounds i8, ptr %this, i64 16
  store ptr null, ptr %sub_data_.i, align 8
  %sub_data_size_.i = getelementptr inbounds i8, ptr %this, i64 24
  store i32 0, ptr %sub_data_size_.i, align 8
  %buffer_size.i = getelementptr inbounds i8, ptr %options, i64 4
  %0 = load i32, ptr %buffer_size.i, align 4
  %conv.i = sext i32 %0 to i64
  %input_buffer_length_.i = getelementptr inbounds i8, ptr %this, i64 160
  store i64 %conv.i, ptr %input_buffer_length_.i, align 8
  %call.i1 = tail call noalias noundef nonnull ptr @_Znwm(i64 noundef %conv.i) #15
  %input_buffer_.i = getelementptr inbounds i8, ptr %this, i64 152
  store ptr %call.i1, ptr %input_buffer_.i, align 8
  %zcontext_.i = getelementptr inbounds i8, ptr %this, i64 32
  %zalloc.i = getelementptr inbounds i8, ptr %this, i64 96
  %total_out.i = getelementptr inbounds i8, ptr %this, i64 72
  store ptr null, ptr %zcontext_.i, align 8
  %avail_in.i = getelementptr inbounds i8, ptr %this, i64 40
  store i32 0, ptr %avail_in.i, align 8
  %total_in.i = getelementptr inbounds i8, ptr %this, i64 48
  tail call void @llvm.memset.p0.i64(ptr noundef nonnull align 8 dereferenceable(20) %total_in.i, i8 0, i64 20, i1 false)
  tail call void @llvm.memset.p0.i64(ptr noundef nonnull align 8 dereferenceable(16) %total_out.i, i8 0, i64 16, i1 false)
  tail call void @llvm.memset.p0.i64(ptr noundef nonnull align 8 dereferenceable(24) %zalloc.i, i8 0, i64 24, i1 false)
  %1 = load i32, ptr %options, align 4
  %cmp20.i = icmp eq i32 %1, 2
  %compression_level.i = getelementptr inbounds i8, ptr %options, i64 8
  %2 = load i32, ptr %compression_level.i, align 4
  %or.i = select i1 %cmp20.i, i32 15, i32 31
  %compression_strategy.i = getelementptr inbounds i8, ptr %options, i64 12
  %3 = load i32, ptr %compression_strategy.i, align 4
  %call22.i2 = tail call i32 @deflateInit2_(ptr noundef nonnull %zcontext_.i, i32 noundef %2, i32 noundef 8, i32 noundef %or.i, i32 noundef 8, i32 noundef %3, ptr noundef nonnull @.str.3, i32 noundef 112)
  %zerror_.i = getelementptr inbounds i8, ptr %this, i64 144
  store i32 %call22.i2, ptr %zerror_.i, align 8
  ret void
}